target datalayout = "e-m:e-p270:32:32-p271:32:32-p272:64:64-i64:64-i128:128-f80:128-n8:16:32:64-S128"
target triple = "x86_64-pc-linux-gnu"

%struct.signal_tasks_msg = type { i16, i16, %struct.slurm_step_id_msg }
%struct.slurm_step_id_msg = type { i64, i32, i32, i32 }
%struct.resource_allocation_response_msg = type { ptr, i32, ptr, i32, i32, i32, ptr, ptr, i32, ptr, i32, i32, ptr, ptr, i32, ptr, i16, i16, i16, i16, i32, ptr, i64, ptr, ptr, ptr, ptr, i32, ptr, ptr }

; Function Attrs: nounwind uwtable
define dso_local i32 @slurm_signal_job(i32 noundef %0, i16 noundef zeroext %1) #0 {
  %3 = alloca i32, align 4
  %4 = alloca i32, align 4
  %5 = alloca i16, align 2
  %6 = alloca i32, align 4
  %7 = alloca ptr, align 8
  %8 = alloca %struct.signal_tasks_msg, align 8
  %9 = alloca i32, align 4
  store i32 %0, ptr %4, align 4
  store i16 %1, ptr %5, align 2
  call void @llvm.lifetime.start.p0(i64 4, ptr %6) #6
  store i32 0, ptr %6, align 4
  call void @llvm.lifetime.start.p0(i64 8, ptr %7) #6
  store ptr null, ptr %7, align 8
  call void @llvm.lifetime.start.p0(i64 32, ptr %8) #6
  %10 = load i32, ptr %4, align 4
  %11 = call i32 @slurm_allocation_lookup(i32 noundef %10, ptr noundef %7)
  %12 = icmp ne i32 %11, 0
  br i1 %12, label %13, label %16

13:                                               ; preds = %2
  %14 = call ptr @__errno_location() #7
  %15 = load i32, ptr %14, align 4
  store i32 %15, ptr %6, align 4
  br label %32

16:                                               ; preds = %2
  call void @llvm.memset.p0.i64(ptr align 8 %8, i8 0, i64 32, i1 false)
  %17 = load i32, ptr %4, align 4
  %18 = getelementptr inbounds nuw %struct.signal_tasks_msg, ptr %8, i32 0, i32 2
  %19 = getelementptr inbounds nuw %struct.slurm_step_id_msg, ptr %18, i32 0, i32 1
  store i32 %17, ptr %19, align 8
  %20 = getelementptr inbounds nuw %struct.signal_tasks_msg, ptr %8, i32 0, i32 2
  %21 = getelementptr inbounds nuw %struct.slurm_step_id_msg, ptr %20, i32 0, i32 3
  store i32 -2, ptr %21, align 8
  %22 = getelementptr inbounds nuw %struct.signal_tasks_msg, ptr %8, i32 0, i32 2
  %23 = getelementptr inbounds nuw %struct.slurm_step_id_msg, ptr %22, i32 0, i32 2
  store i32 -2, ptr %23, align 4
  %24 = load i16, ptr %5, align 2
  %25 = getelementptr inbounds nuw %struct.signal_tasks_msg, ptr %8, i32 0, i32 1
  store i16 %24, ptr %25, align 2
  %26 = getelementptr inbounds nuw %struct.signal_tasks_msg, ptr %8, i32 0, i32 0
  store i16 4, ptr %26, align 8
  %27 = load ptr, ptr %7, align 8
  %28 = getelementptr inbounds nuw %struct.resource_allocation_response_msg, ptr %27, i32 0, i32 15
  %29 = load ptr, ptr %28, align 8
  %30 = call i32 @_local_send_recv_rc_msgs(ptr noundef %29, i32 noundef 6004, ptr noundef %8)
  store i32 %30, ptr %6, align 4
  %31 = load ptr, ptr %7, align 8
  call void @slurm_free_resource_allocation_response_msg(ptr noundef %31)
  br label %32

32:                                               ; preds = %16, %13
  %33 = load i32, ptr %6, align 4
  %34 = icmp ne i32 %33, 0
  br i1 %34, label %35, label %44

35:                                               ; preds = %32
  br label %36

36:                                               ; preds = %35
  %37 = load i32, ptr %6, align 4
  %38 = call ptr @__errno_location() #7
  store i32 %37, ptr %38, align 4
  %39 = load i32, ptr %6, align 4
  %40 = icmp ne i32 %39, 0
  %41 = select i1 %40, i32 -1, i32 0
  store i32 %41, ptr %3, align 4
  store i32 1, ptr %9, align 4
  br label %46

42:                                               ; No predecessors!
  br label %43

43:                                               ; preds = %42
  br label %45

44:                                               ; preds = %32
  store i32 0, ptr %3, align 4
  store i32 1, ptr %9, align 4
  br label %46

45:                                               ; preds = %43
  store i32 0, ptr %9, align 4
  br label %46

46:                                               ; preds = %45, %44, %36
  call void @llvm.lifetime.end.p0(i64 32, ptr %8) #6
  call void @llvm.lifetime.end.p0(i64 8, ptr %7) #6
  call void @llvm.lifetime.end.p0(i64 4, ptr %6) #6
  %47 = load i32, ptr %9, align 4
  switch i32 %47, label %50 [
    i32 0, label %48
    i32 1, label %48
  ]

48:                                               ; preds = %46, %46
  %49 = load i32, ptr %3, align 4
  ret i32 %49

50:                                               ; preds = %46
  unreachable
}