; Function Attrs: nounwind uwtable
define dso_local range(i32 -1, 1) i32 @slurm_signal_job(i32 noundef %0, i16 noundef zeroext %1) local_unnamed_addr #0 {
  %3 = alloca ptr, align 8
  %4 = alloca %struct.signal_tasks_msg, align 8
  call void @llvm.lifetime.start.p0(i64 8, ptr nonnull %3) #6
  store ptr null, ptr %3, align 8
  call void @llvm.lifetime.start.p0(i64 32, ptr nonnull %4) #6
  %5 = call i32 @slurm_allocation_lookup(i32 noundef %0, ptr noundef nonnull %3) #6
  %.not = icmp eq i32 %5, 0
  br i1 %.not, label %9, label %6

6:                                                ; preds = %2
  %7 = tail call ptr @__errno_location() #7
  %8 = load i32, ptr %7, align 4
  br label %19

9:                                                ; preds = %2
  call void @llvm.memset.p0.i64(ptr noundef nonnull align 8 dereferenceable(32) %4, i8 0, i64 32, i1 false)
  %10 = getelementptr inbounds nuw i8, ptr %4, i64 16
  store i32 %0, ptr %10, align 8
  %11 = getelementptr inbounds nuw i8, ptr %4, i64 24
  store i32 -2, ptr %11, align 8
  %12 = getelementptr inbounds nuw i8, ptr %4, i64 20
  store i32 -2, ptr %12, align 4
  %13 = getelementptr inbounds nuw i8, ptr %4, i64 2
  store i16 %1, ptr %13, align 2
  store i16 4, ptr %4, align 8
  %14 = load ptr, ptr %3, align 8
  %15 = getelementptr inbounds nuw i8, ptr %14, i64 104
  %16 = load ptr, ptr %15, align 8
  %17 = call fastcc i32 @_local_send_recv_rc_msgs(ptr noundef %16, i32 noundef 6004, ptr noundef %4)
  %18 = load ptr, ptr %3, align 8
  call void @slurm_free_resource_allocation_response_msg(ptr noundef %18) #6
  br label %19

19:                                               ; preds = %9, %6
  %.0 = phi i32 [ %8, %6 ], [ %17, %9 ]
  %.not8 = icmp eq i32 %.0, 0
  br i1 %.not8, label %22, label %20

20:                                               ; preds = %19
  %21 = tail call ptr @__errno_location() #7
  store i32 %.0, ptr %21, align 4
  br label %22

22:                                               ; preds = %19, %20
  %.07 = phi i32 [ -1, %20 ], [ 0, %19 ]
  call void @llvm.lifetime.end.p0(i64 32, ptr nonnull %4) #6
  call void @llvm.lifetime.end.p0(i64 8, ptr nonnull %3) #6
  ret i32 %.07
}